Certificate:
    Data:
        Version: 3 (0x2)
        Serial Number: 2 (0x2)
    Signature Algorithm: sha256WithRSAEncryption
        Issuer: C=VN, ST=HN, L=Hanoi, O=makerhanoi, OU=makerhanoi, CN=makerhanoi CA/name=EasyRSA/emailAddress=hieuht@0x1115.org
        Validity
            Not Before: Jun 30 19:58:01 2016 GMT
            Not After : Jun 28 19:58:01 2026 GMT
        Subject: C=VN, ST=Hanoi, L=Hanoi, O=Makerhanoi, OU=Makerhanoi, CN=client/name=EasyRSA/emailAddress=hieuht@0x1115.org
        Subject Public Key Info:
            Public Key Algorithm: rsaEncryption
                Public-Key: (2048 bit)
                Modulus:
                    00:da:69:de:99:a0:0e:c7:cc:36:1c:f6:b6:b2:f9:
                    f3:bf:a1:a9:b2:04:c2:8f:a7:48:c3:21:45:ef:5f:
                    ef:7f:c6:08:7b:72:3e:00:3c:2f:63:cf:ea:bb:e7:
                    0b:0a:d8:04:95:ed:b9:fc:b8:5b:84:56:86:05:18:
                    02:6b:79:7a:80:ee:23:e2:39:31:ca:46:4a:2f:41:
                    80:89:13:b4:f8:1f:d8:da:0e:db:cd:79:01:92:86:
                    5d:d6:4e:02:84:ef:ca:e6:24:14:b9:72:06:6b:20:
                    51:f4:52:d3:11:74:b1:18:d8:4c:6f:ba:c9:a7:83:
                    f0:9a:13:20:1a:82:75:31:24:34:70:12:a6:8b:76:
                    fe:8d:9b:2b:57:eb:a4:5c:22:77:77:da:ba:ab:3d:
                    ea:f3:53:6a:d9:63:b4:b7:d3:16:0f:99:08:2e:25:
                    c5:90:2f:ff:77:c2:cd:34:80:f5:48:e0:c1:2d:2a:
                    e9:5d:c9:a5:af:0d:6d:1e:4b:e1:ce:b6:b5:28:90:
                    47:21:22:dd:3c:28:c5:00:c2:6b:7d:d2:c8:d9:a9:
                    38:15:4d:ce:c0:ad:75:c9:98:36:a9:cd:53:09:47:
                    01:21:0d:aa:bf:14:f4:f9:f6:6b:39:29:40:af:b9:
                    ee:1e:08:2c:57:54:14:6c:e7:3b:11:09:d3:c8:ab:
                    66:b7
                Exponent: 65537 (0x10001)
        X509v3 extensions:
            X509v3 Basic Constraints: 
                CA:FALSE
            Netscape Comment: 
                Easy-RSA Generated Certificate
            X509v3 Subject Key Identifier: 
                A3:E3:28:4A:04:F9:07:B7:6A:5C:89:5C:8E:97:EB:C8:23:D7:3F:F7
            X509v3 Authority Key Identifier: 
                keyid:35:05:FE:14:E7:74:B2:47:03:05:FD:FD:59:88:4C:E0:40:06:77:BA
                DirName:/C=VN/ST=HN/L=Hanoi/O=makerhanoi/OU=makerhanoi/CN=makerhanoi CA/name=EasyRSA/emailAddress=hieuht@0x1115.org
                serial:F1:3B:4B:D1:D1:09:89:EE

            X509v3 Extended Key Usage: 
                TLS Web Client Authentication
            X509v3 Key Usage: 
                Digital Signature
    Signature Algorithm: sha256WithRSAEncryption
         8b:1d:99:f9:2f:a0:c1:f2:c0:7d:f3:5c:04:93:f4:16:f0:cf:
         41:5d:ab:98:36:24:9e:42:9a:9f:ef:12:5c:ce:67:c6:26:2e:
         37:13:0d:64:e4:05:3a:0d:fa:da:b4:a7:58:c6:c6:b4:9a:b7:
         8f:a6:68:93:88:47:1a:89:6d:f5:38:05:ec:89:c9:49:f5:5a:
         bc:d9:2d:af:e1:39:b1:45:ff:c3:a9:72:10:72:67:01:45:d1:
         95:b6:cb:62:ce:1e:93:51:ac:7a:81:ee:cf:30:25:90:be:d3:
         c5:2b:2d:7c:b2:06:da:89:b6:2d:0a:da:6d:19:d9:59:15:9d:
         31:5c:b5:1d:7a:7d:f3:63:2c:2b:5e:96:68:aa:c0:15:f6:46:
         89:7f:f0:b6:4b:de:1e:15:30:9b:a7:a6:93:ae:e1:84:11:9d:
         9c:62:9f:31:4a:ed:ce:37:71:c5:5e:a4:c6:c9:69:86:0f:a8:
         d6:be:0d:d7:44:60:3d:2e:79:24:8c:15:04:76:94:09:e3:4e:
         e2:dd:5e:dd:53:26:11:55:40:f2:81:3b:c3:90:0b:bc:73:b6:
         20:31:f9:60:74:8d:13:c6:3a:c6:61:84:61:6f:62:89:39:eb:
         f3:91:30:9d:92:e9:49:87:8a:26:67:38:1b:06:53:48:eb:9b:
         34:44:f2:9f
-----BEGIN CERTIFICATE-----
MIIFEjCCA/qgAwIBAgIBAjANBgkqhkiG9w0BAQsFADCBoDELMAkGA1UEBhMCVk4x
CzAJBgNVBAgTAkhOMQ4wDAYDVQQHEwVIYW5vaTETMBEGA1UEChMKbWFrZXJoYW5v
aTETMBEGA1UECxMKbWFrZXJoYW5vaTEWMBQGA1UEAxMNbWFrZXJoYW5vaSBDQTEQ
MA4GA1UEKRMHRWFzeVJTQTEgMB4GCSqGSIb3DQEJARYRaGlldWh0QDB4MTExNS5v
cmcwHhcNMTYwNjMwMTk1ODAxWhcNMjYwNjI4MTk1ODAxWjCBnDELMAkGA1UEBhMC
Vk4xDjAMBgNVBAgTBUhhbm9pMQ4wDAYDVQQHEwVIYW5vaTETMBEGA1UEChMKTWFr
ZXJoYW5vaTETMBEGA1UECxMKTWFrZXJoYW5vaTEPMA0GA1UEAxMGY2xpZW50MRAw
DgYDVQQpEwdFYXN5UlNBMSAwHgYJKoZIhvcNAQkBFhFoaWV1aHRAMHgxMTE1Lm9y
ZzCCASIwDQYJKoZIhvcNAQEBBQADggEPADCCAQoCggEBANpp3pmgDsfMNhz2trL5
87+hqbIEwo+nSMMhRe9f73/GCHtyPgA8L2PP6rvnCwrYBJXtufy4W4RWhgUYAmt5
eoDuI+I5McpGSi9BgIkTtPgf2NoO2815AZKGXdZOAoTvyuYkFLlyBmsgUfRS0xF0
sRjYTG+6yaeD8JoTIBqCdTEkNHASpot2/o2bK1frpFwid3fauqs96vNTatljtLfT
Fg+ZCC4lxZAv/3fCzTSA9UjgwS0q6V3Jpa8NbR5L4c62tSiQRyEi3TwoxQDCa33S
yNmpOBVNzsCtdcmYNqnNUwlHASENqr8U9Pn2azkpQK+57h4ILFdUFGznOxEJ08ir
ZrcCAwEAAaOCAVcwggFTMAkGA1UdEwQCMAAwLQYJYIZIAYb4QgENBCAWHkVhc3kt
UlNBIEdlbmVyYXRlZCBDZXJ0aWZpY2F0ZTAdBgNVHQ4EFgQUo+MoSgT5B7dqXIlc
jpfryCPXP/cwgdUGA1UdIwSBzTCByoAUNQX+FOd0skcDBf39WYhM4EAGd7qhgaak
gaMwgaAxCzAJBgNVBAYTAlZOMQswCQYDVQQIEwJITjEOMAwGA1UEBxMFSGFub2kx
EzARBgNVBAoTCm1ha2VyaGFub2kxEzARBgNVBAsTCm1ha2VyaGFub2kxFjAUBgNV
BAMTDW1ha2VyaGFub2kgQ0ExEDAOBgNVBCkTB0Vhc3lSU0ExIDAeBgkqhkiG9w0B
CQEWEWhpZXVodEAweDExMTUub3JnggkA8TtL0dEJie4wEwYDVR0lBAwwCgYIKwYB
BQUHAwIwCwYDVR0PBAQDAgeAMA0GCSqGSIb3DQEBCwUAA4IBAQCLHZn5L6DB8sB9
81wEk/QW8M9BXauYNiSeQpqf7xJczmfGJi43Ew1k5AU6DfratKdYxsa0mrePpmiT
iEcaiW31OAXsiclJ9Vq82S2v4TmxRf/DqXIQcmcBRdGVtstizh6TUax6ge7PMCWQ
vtPFKy18sgbaibYtCtptGdlZFZ0xXLUden3zYywrXpZoqsAV9kaJf/C2S94eFTCb
p6aTruGEEZ2cYp8xSu3ON3HFXqTGyWmGD6jWvg3XRGA9LnkkjBUEdpQJ407i3V7d
UyYRVUDygTvDkAu8c7YgMflgdI0TxjrGYYRhb2KJOevzkTCdkulJh4omZzgbBlNI
65s0RPKf
-----END CERTIFICATE-----
