Certificate:
    Data:
        Version: 3 (0x2)
        Serial Number: 2 (0x2)
    Signature Algorithm: sha256WithRSAEncryption
        Issuer: C=VN, ST=HN, L=Hanoi, O=Makerhanoi, OU=Makerhanoi, CN=Makerhanoi CA/name=EasyRSA/emailAddress=hieuht@0x1115.org
        Validity
            Not Before: Jul  6 09:10:32 2016 GMT
            Not After : Jul  4 09:10:32 2026 GMT
        Subject: C=VN, ST=HN, L=Hanoi, O=Makerhanoi, OU=Makerhanoi, CN=client/name=EasyRSA/emailAddress=hieuht@0x1115.org
        Subject Public Key Info:
            Public Key Algorithm: rsaEncryption
                Public-Key: (2048 bit)
                Modulus:
                    00:bc:84:9f:fd:09:e0:5f:2d:36:c5:16:69:0a:f0:
                    a5:07:af:61:c9:48:97:80:44:8c:48:cc:ef:36:40:
                    7a:c5:d9:0b:3b:ac:db:71:51:3c:70:10:3d:23:d5:
                    ba:02:23:9d:19:32:fb:b1:36:03:d0:ef:83:88:16:
                    78:8c:2f:5d:7f:89:da:65:17:79:66:9e:36:4e:84:
                    0b:6f:f1:2a:17:8d:2f:93:41:42:21:52:3e:f0:2c:
                    48:d0:13:55:8e:17:d8:16:13:a5:94:f5:46:87:c0:
                    c5:f0:52:c1:80:b9:cc:fa:ff:e1:d4:1e:1c:2a:4f:
                    9b:f9:10:a1:54:4b:10:bb:5b:40:df:51:2a:79:bc:
                    ae:b7:54:75:24:9d:a7:42:5f:6d:4f:79:25:eb:41:
                    06:0d:60:d2:49:41:05:cd:00:73:d7:7a:7e:20:42:
                    0c:40:a3:5e:ca:e8:b1:01:06:d4:a2:06:d9:ff:c2:
                    77:6d:7a:11:4c:5a:26:3c:30:30:b0:c6:0b:2e:04:
                    9f:1f:c3:f3:ed:5f:53:e8:f8:f9:f6:f7:5f:0c:69:
                    cc:cd:1d:dd:3b:45:f7:2c:b9:59:c1:96:d7:ed:69:
                    58:bd:e0:69:a7:5b:cd:6e:cf:a6:77:b0:5e:b2:48:
                    a5:c1:a2:74:46:06:5a:18:d7:e0:cd:6c:1d:c0:38:
                    12:71
                Exponent: 65537 (0x10001)
        X509v3 extensions:
            X509v3 Basic Constraints: 
                CA:FALSE
            Netscape Comment: 
                Easy-RSA Generated Certificate
            X509v3 Subject Key Identifier: 
                CA:8F:82:E0:EA:3A:C4:88:B2:88:B0:30:9C:06:46:F7:E2:85:55:E2
            X509v3 Authority Key Identifier: 
                keyid:DB:EF:C0:38:B7:E9:8D:C7:CF:76:1F:84:D8:65:C2:1A:3A:60:2C:DE
                DirName:/C=VN/ST=HN/L=Hanoi/O=Makerhanoi/OU=Makerhanoi/CN=Makerhanoi CA/name=EasyRSA/emailAddress=hieuht@0x1115.org
                serial:89:58:88:93:48:D1:64:CE

            X509v3 Extended Key Usage: 
                TLS Web Client Authentication
            X509v3 Key Usage: 
                Digital Signature
    Signature Algorithm: sha256WithRSAEncryption
         65:3c:cf:35:0c:6a:12:d2:c7:96:07:b6:d9:1c:65:5c:af:59:
         75:9f:f5:e2:88:9f:b9:48:1d:da:05:95:db:8b:77:54:71:c5:
         5c:60:f2:e2:79:42:cf:bf:5f:06:7b:95:69:c6:35:58:9e:20:
         c9:33:fa:84:b9:05:12:43:ad:60:92:45:d9:e4:4a:d8:cc:d7:
         22:42:92:c1:a5:68:4a:33:0e:05:d2:4c:10:8c:6b:74:ed:a9:
         a2:50:b8:58:12:58:22:76:77:89:bb:63:99:23:5b:e0:e7:15:
         1a:31:20:1a:7b:c9:b0:1d:c7:f9:b1:c7:44:bf:f8:a9:4d:21:
         83:e7:54:e6:e3:cb:eb:4c:68:7c:fe:86:09:77:e6:8b:df:21:
         60:2e:76:39:90:46:9b:01:c2:9a:97:c5:60:2e:0f:2a:a0:4c:
         4c:20:5d:68:d8:1e:f8:ce:44:e9:e2:14:1d:90:c8:0c:52:6f:
         f6:52:53:19:9c:d7:31:52:37:90:2b:f7:c1:57:ea:bc:e8:54:
         f1:87:b0:fe:e3:41:e9:3c:23:bb:c3:87:ad:08:b8:31:16:3c:
         3f:da:0c:1e:7c:74:59:89:b5:87:d7:c0:ac:26:5d:af:fe:d5:
         9d:c7:7c:a9:75:e9:49:a3:f3:1e:77:a4:b4:f3:2b:99:ff:fa:
         ec:81:43:2f
-----BEGIN CERTIFICATE-----
MIIFDzCCA/egAwIBAgIBAjANBgkqhkiG9w0BAQsFADCBoDELMAkGA1UEBhMCVk4x
CzAJBgNVBAgTAkhOMQ4wDAYDVQQHEwVIYW5vaTETMBEGA1UEChMKTWFrZXJoYW5v
aTETMBEGA1UECxMKTWFrZXJoYW5vaTEWMBQGA1UEAxMNTWFrZXJoYW5vaSBDQTEQ
MA4GA1UEKRMHRWFzeVJTQTEgMB4GCSqGSIb3DQEJARYRaGlldWh0QDB4MTExNS5v
cmcwHhcNMTYwNzA2MDkxMDMyWhcNMjYwNzA0MDkxMDMyWjCBmTELMAkGA1UEBhMC
Vk4xCzAJBgNVBAgTAkhOMQ4wDAYDVQQHEwVIYW5vaTETMBEGA1UEChMKTWFrZXJo
YW5vaTETMBEGA1UECxMKTWFrZXJoYW5vaTEPMA0GA1UEAxMGY2xpZW50MRAwDgYD
VQQpEwdFYXN5UlNBMSAwHgYJKoZIhvcNAQkBFhFoaWV1aHRAMHgxMTE1Lm9yZzCC
ASIwDQYJKoZIhvcNAQEBBQADggEPADCCAQoCggEBALyEn/0J4F8tNsUWaQrwpQev
YclIl4BEjEjM7zZAesXZCzus23FRPHAQPSPVugIjnRky+7E2A9Dvg4gWeIwvXX+J
2mUXeWaeNk6EC2/xKheNL5NBQiFSPvAsSNATVY4X2BYTpZT1RofAxfBSwYC5zPr/
4dQeHCpPm/kQoVRLELtbQN9RKnm8rrdUdSSdp0JfbU95JetBBg1g0klBBc0Ac9d6
fiBCDECjXsrosQEG1KIG2f/Cd216EUxaJjwwMLDGCy4Enx/D8+1fU+j4+fb3Xwxp
zM0d3TtF9yy5WcGW1+1pWL3gaadbzW7PpnewXrJIpcGidEYGWhjX4M1sHcA4EnEC
AwEAAaOCAVcwggFTMAkGA1UdEwQCMAAwLQYJYIZIAYb4QgENBCAWHkVhc3ktUlNB
IEdlbmVyYXRlZCBDZXJ0aWZpY2F0ZTAdBgNVHQ4EFgQUyo+C4Oo6xIiyiLAwnAZG
9+KFVeIwgdUGA1UdIwSBzTCByoAU2+/AOLfpjcfPdh+E2GXCGjpgLN6hgaakgaMw
gaAxCzAJBgNVBAYTAlZOMQswCQYDVQQIEwJITjEOMAwGA1UEBxMFSGFub2kxEzAR
BgNVBAoTCk1ha2VyaGFub2kxEzARBgNVBAsTCk1ha2VyaGFub2kxFjAUBgNVBAMT
DU1ha2VyaGFub2kgQ0ExEDAOBgNVBCkTB0Vhc3lSU0ExIDAeBgkqhkiG9w0BCQEW
EWhpZXVodEAweDExMTUub3JnggkAiViIk0jRZM4wEwYDVR0lBAwwCgYIKwYBBQUH
AwIwCwYDVR0PBAQDAgeAMA0GCSqGSIb3DQEBCwUAA4IBAQBlPM81DGoS0seWB7bZ
HGVcr1l1n/XiiJ+5SB3aBZXbi3dUccVcYPLieULPv18Ge5VpxjVYniDJM/qEuQUS
Q61gkkXZ5ErYzNciQpLBpWhKMw4F0kwQjGt07amiULhYElgidneJu2OZI1vg5xUa
MSAae8mwHcf5scdEv/ipTSGD51Tm48vrTGh8/oYJd+aL3yFgLnY5kEabAcKal8Vg
Lg8qoExMIF1o2B74zkTp4hQdkMgMUm/2UlMZnNcxUjeQK/fBV+q86FTxh7D+40Hp
PCO7w4etCLgxFjw/2gwefHRZibWH18CsJl2v/tWdx3ypdelJo/Med6S08yuZ//rs
gUMv
-----END CERTIFICATE-----
